target datalayout = "e-m:e-p270:32:32-p271:32:32-p272:64:64-i64:64-i128:128-f80:128-n8:16:32:64-S128"
target triple = "x86_64-pc-linux-gnu"

; Function Attrs: nounwind uwtable
define void @ff_h264_chroma_dc_dequant_idct_8_c(ptr noundef %0, i32 noundef %1) #0 {
  %3 = alloca ptr, align 8
  %4 = alloca i32, align 4
  %5 = alloca i32, align 4
  %6 = alloca i32, align 4
  %7 = alloca i32, align 4
  %8 = alloca i32, align 4
  %9 = alloca i32, align 4
  %10 = alloca i32, align 4
  %11 = alloca i32, align 4
  %12 = alloca ptr, align 8
  store ptr %0, ptr %3, align 8, !tbaa !9
  store i32 %1, ptr %4, align 4, !tbaa !11
  call void @llvm.lifetime.start.p0(i64 4, ptr %5) #4
  store i32 32, ptr %5, align 4, !tbaa !11
  call void @llvm.lifetime.start.p0(i64 4, ptr %6) #4
  store i32 16, ptr %6, align 4, !tbaa !11
  call void @llvm.lifetime.start.p0(i64 4, ptr %7) #4
  call void @llvm.lifetime.start.p0(i64 4, ptr %8) #4
  call void @llvm.lifetime.start.p0(i64 4, ptr %9) #4
  call void @llvm.lifetime.start.p0(i64 4, ptr %10) #4
  call void @llvm.lifetime.start.p0(i64 4, ptr %11) #4
  call void @llvm.lifetime.start.p0(i64 8, ptr %12) #4
  %13 = load ptr, ptr %3, align 8, !tbaa !9
  store ptr %13, ptr %12, align 8, !tbaa !9
  %14 = load ptr, ptr %12, align 8, !tbaa !9
  %15 = getelementptr inbounds i16, ptr %14, i64 0
  %16 = load i16, ptr %15, align 2, !tbaa !13
  %17 = sext i16 %16 to i32
  store i32 %17, ptr %7, align 4, !tbaa !11
  %18 = load ptr, ptr %12, align 8, !tbaa !9
  %19 = getelementptr inbounds i16, ptr %18, i64 16
  %20 = load i16, ptr %19, align 2, !tbaa !13
  %21 = sext i16 %20 to i32
  store i32 %21, ptr %8, align 4, !tbaa !11
  %22 = load ptr, ptr %12, align 8, !tbaa !9
  %23 = getelementptr inbounds i16, ptr %22, i64 32
  %24 = load i16, ptr %23, align 2, !tbaa !13
  %25 = sext i16 %24 to i32
  store i32 %25, ptr %9, align 4, !tbaa !11
  %26 = load ptr, ptr %12, align 8, !tbaa !9
  %27 = getelementptr inbounds i16, ptr %26, i64 48
  %28 = load i16, ptr %27, align 2, !tbaa !13
  %29 = sext i16 %28 to i32
  store i32 %29, ptr %10, align 4, !tbaa !11
  %30 = load i32, ptr %7, align 4, !tbaa !11
  %31 = load i32, ptr %8, align 4, !tbaa !11
  %32 = sub i32 %30, %31
  store i32 %32, ptr %11, align 4, !tbaa !11
  %33 = load i32, ptr %7, align 4, !tbaa !11
  %34 = load i32, ptr %8, align 4, !tbaa !11
  %35 = add i32 %33, %34
  store i32 %35, ptr %7, align 4, !tbaa !11
  %36 = load i32, ptr %9, align 4, !tbaa !11
  %37 = load i32, ptr %10, align 4, !tbaa !11
  %38 = sub i32 %36, %37
  store i32 %38, ptr %8, align 4, !tbaa !11
  %39 = load i32, ptr %9, align 4, !tbaa !11
  %40 = load i32, ptr %10, align 4, !tbaa !11
  %41 = add i32 %39, %40
  store i32 %41, ptr %9, align 4, !tbaa !11
  %42 = load i32, ptr %7, align 4, !tbaa !11
  %43 = load i32, ptr %9, align 4, !tbaa !11
  %44 = add i32 %42, %43
  %45 = load i32, ptr %4, align 4, !tbaa !11
  %46 = mul i32 %44, %45
  %47 = ashr i32 %46, 7
  %48 = trunc i32 %47 to i16
  %49 = load ptr, ptr %12, align 8, !tbaa !9
  %50 = getelementptr inbounds i16, ptr %49, i64 0
  store i16 %48, ptr %50, align 2, !tbaa !13
  %51 = load i32, ptr %11, align 4, !tbaa !11
  %52 = load i32, ptr %8, align 4, !tbaa !11
  %53 = add i32 %51, %52
  %54 = load i32, ptr %4, align 4, !tbaa !11
  %55 = mul i32 %53, %54
  %56 = ashr i32 %55, 7
  %57 = trunc i32 %56 to i16
  %58 = load ptr, ptr %12, align 8, !tbaa !9
  %59 = getelementptr inbounds i16, ptr %58, i64 16
  store i16 %57, ptr %59, align 2, !tbaa !13
  %60 = load i32, ptr %7, align 4, !tbaa !11
  %61 = load i32, ptr %9, align 4, !tbaa !11
  %62 = sub i32 %60, %61
  %63 = load i32, ptr %4, align 4, !tbaa !11
  %64 = mul i32 %62, %63
  %65 = ashr i32 %64, 7
  %66 = trunc i32 %65 to i16
  %67 = load ptr, ptr %12, align 8, !tbaa !9
  %68 = getelementptr inbounds i16, ptr %67, i64 32
  store i16 %66, ptr %68, align 2, !tbaa !13
  %69 = load i32, ptr %11, align 4, !tbaa !11
  %70 = load i32, ptr %8, align 4, !tbaa !11
  %71 = sub i32 %69, %70
  %72 = load i32, ptr %4, align 4, !tbaa !11
  %73 = mul i32 %71, %72
  %74 = ashr i32 %73, 7
  %75 = trunc i32 %74 to i16
  %76 = load ptr, ptr %12, align 8, !tbaa !9
  %77 = getelementptr inbounds i16, ptr %76, i64 48
  store i16 %75, ptr %77, align 2, !tbaa !13
  call void @llvm.lifetime.end.p0(i64 8, ptr %12) #4
  call void @llvm.lifetime.end.p0(i64 4, ptr %11) #4
  call void @llvm.lifetime.end.p0(i64 4, ptr %10) #4
  call void @llvm.lifetime.end.p0(i64 4, ptr %9) #4
  call void @llvm.lifetime.end.p0(i64 4, ptr %8) #4
  call void @llvm.lifetime.end.p0(i64 4, ptr %7) #4
  call void @llvm.lifetime.end.p0(i64 4, ptr %6) #4
  call void @llvm.lifetime.end.p0(i64 4, ptr %5) #4
  ret void
}