; Function Attrs: mustprogress nofree norecurse nosync nounwind willreturn memory(argmem: readwrite) uwtable
define void @ff_h264_chroma_dc_dequant_idct_8_c(ptr noundef captures(none) %0, i32 noundef %1) local_unnamed_addr #4 {
  %3 = load i16, ptr %0, align 2, !tbaa !4
  %4 = sext i16 %3 to i32
  %5 = getelementptr inbounds nuw i8, ptr %0, i64 32
  %6 = load i16, ptr %5, align 2, !tbaa !4
  %7 = sext i16 %6 to i32
  %8 = getelementptr inbounds nuw i8, ptr %0, i64 64
  %9 = load i16, ptr %8, align 2, !tbaa !4
  %10 = sext i16 %9 to i32
  %11 = getelementptr inbounds nuw i8, ptr %0, i64 96
  %12 = load i16, ptr %11, align 2, !tbaa !4
  %13 = sext i16 %12 to i32
  %14 = sub nsw i32 %4, %7
  %15 = add nsw i32 %7, %4
  %16 = sub nsw i32 %10, %13
  %17 = add nsw i32 %13, %10
  %18 = add nsw i32 %17, %15
  %19 = mul i32 %18, %1
  %20 = lshr i32 %19, 7
  %21 = trunc i32 %20 to i16
  store i16 %21, ptr %0, align 2, !tbaa !4
  %22 = add nsw i32 %16, %14
  %23 = mul i32 %22, %1
  %24 = lshr i32 %23, 7
  %25 = trunc i32 %24 to i16
  store i16 %25, ptr %5, align 2, !tbaa !4
  %26 = sub nsw i32 %15, %17
  %27 = mul i32 %26, %1
  %28 = lshr i32 %27, 7
  %29 = trunc i32 %28 to i16
  store i16 %29, ptr %8, align 2, !tbaa !4
  %30 = sub nsw i32 %14, %16
  %31 = mul i32 %30, %1
  %32 = lshr i32 %31, 7
  %33 = trunc i32 %32 to i16
  store i16 %33, ptr %11, align 2, !tbaa !4
  ret void
}